(dp0
I0
(lp1
S'219001'
p2
aS'27001'
p3
aS'255002'
p4
aS'221002'
p5
aS'149015'
p6
aS'288009'
p7
asI1
(lp8
S'180023'
p9
aS'149056'
p10
aS'180036'
p11
aS'162061'
p12
aS'162027'
p13
aS'141046'
p14
asI2
(lp15
S'75016'
p16
aS'214036'
p17
aS'277055'
p18
aS'75013'
p19
aS'214037'
p20
aS'277057'
p21
asI3
(lp22
S'277029'
p23
aS'75012'
p24
aS'214015'
p25
aS'214035'
p26
aS'75007'
p27
aS'277047'
p28
asI4
(lp29
S'9020'
p30
aS'183013'
p31
aS'118004'
p32
aS'132006'
p33
aS'259015'
p34
aS'165020'
p35
aS'156012'
p36
aS'191006'
p37
aS'181002'
p38
aS'355014'
p39
aS'226011'
p40
aS'17003'
p41
aS'100006'
p42
aS'227004'
p43
asI5
(lp44
S'254069'
p45
aS'88021'
p46
aS'77012'
p47
aS'99149'
p48
aS'335114'
p49
aS'149073'
p50
aS'257105'
p51
aS'280080'
p52
aS'335098'
p53
aS'329087'
p54
aS'287012'
p55
aS'32129'
p56
aS'315100'
p57
aS'315087'
p58
aS'124041'
p59
aS'35210'
p60
asI6
(lp61
S'160020'
p62
aS'275024'
p63
aS'330062'
p64
aS'279008'
p65
aS'279009'
p66
aS'330071'
p67
asI7
(lp68
S'128011'
p69
aS'316010'
p70
aS'153013'
p71
aS'128005'
p72
aS'153005'
p73
asI8
(lp74
S'282014'
p75
aS'233007'
p76
aS'282012'
p77
aS'80019'
p78
aS'80017'
p79
aS'233005'
p80
asI9
(lp81
S'277063'
p82
aS'277078'
p83
aS'214041'
p84
aS'75022'
p85
aS'75018'
p86
aS'214038'
p87
asI10
(lp88
S'291049'
p89
aS'29016'
p90
aS'303023'
p91
aS'291023'
p92
aS'29009'
p93
aS'303042'
p94
asI11
(lp95
S'149021'
p96
aS'337008'
p97
aS'32032'
p98
aS'162011'
p99
aS'180011'
p100
aS'296010'
p101
asI12
(lp102
S'31008'
p103
aS'342101'
p104
aS'31011'
p105
aS'342059'
p106
aS'162083'
p107
asI13
(lp108
S'91068'
p109
aS'176109'
p110
aS'35200'
p111
aS'91058'
p112
aS'35248'
p113
asI14
(lp114
S'4116'
p115
aS'32148'
p116
aS'144025'
p117
aS'315097'
p118
aS'176101'
p119
aS'309195'
p120
aS'329102'
p121
asI15
(lp122
S'55048'
p123
aS'233013'
p124
aS'61009'
p125
aS'225027'
p126
aS'56013'
p127
asI16
(lp128
S'162094'
p129
aS'162033'
p130
aS'162036'
p131
aS'149071'
p132
aS'162058'
p133
asI17
(lp134
S'189010'
p135
aS'92027'
p136
aS'189008'
p137
aS'189009'
p138
aS'92034'
p139
aS'189007'
p140
aS'92026'
p141
asI18
(lp142
S'301007'
p143
aS'266018'
p144
aS'301028'
p145
aS'32016'
p146
aS'199002'
p147
aS'199005'
p148
aS'266009'
p149
asI19
(lp150
S'288020'
p151
aS'359001'
p152
aS'176017'
p153
aS'359002'
p154
aS'288007'
p155
aS'176048'
p156
asI20
(lp157
S'68003'
p158
aS'149025'
p159
aS'3001'
p160
aS'21009'
p161
aS'221007'
p162
as.